; ModuleID = '16/338.cpp'
source_filename = "16/338.cpp"
target datalayout = "e-m:e-p270:32:32-p271:32:32-p272:64:64-i64:64-f80:128-n8:16:32:64-S128"
target triple = "x86_64-pc-linux-gnu"

%"class.std::ios_base::Init" = type { i8 }
%"class.std::basic_istream" = type { i32 (...)**, i64, %"class.std::basic_ios" }
%"class.std::basic_ios" = type { %"class.std::ios_base", %"class.std::basic_ostream"*, i8, i8, %"class.std::basic_streambuf"*, %"class.std::ctype"*, %"class.std::num_put"*, %"class.std::num_get"* }
%"class.std::ios_base" = type { i32 (...)**, i64, i64, i32, i32, i32, %"struct.std::ios_base::_Callback_list"*, %"struct.std::ios_base::_Words", [8 x %"struct.std::ios_base::_Words"], i32, %"struct.std::ios_base::_Words"*, %"class.std::locale" }
%"struct.std::ios_base::_Callback_list" = type { %"struct.std::ios_base::_Callback_list"*, void (i32, %"class.std::ios_base"*, i32)*, i32, i32 }
%"struct.std::ios_base::_Words" = type { i8*, i64 }
%"class.std::locale" = type { %"class.std::locale::_Impl"* }
%"class.std::locale::_Impl" = type { i32, %"class.std::locale::facet"**, i64, %"class.std::locale::facet"**, i8** }
%"class.std::locale::facet" = type <{ i32 (...)**, i32, [4 x i8] }>
%"class.std::basic_ostream" = type { i32 (...)**, %"class.std::basic_ios" }
%"class.std::basic_streambuf" = type { i32 (...)**, i8*, i8*, i8*, i8*, i8*, i8*, %"class.std::locale" }
%"class.std::ctype" = type <{ %"class.std::locale::facet.base", [4 x i8], %struct.__locale_struct*, i8, [7 x i8], i32*, i32*, i16*, i8, [256 x i8], [256 x i8], i8, [6 x i8] }>
%"class.std::locale::facet.base" = type <{ i32 (...)**, i32 }>
%struct.__locale_struct = type { [13 x %struct.__locale_data*], i16*, i32*, i32*, [13 x i8*] }
%struct.__locale_data = type opaque
%"class.std::num_put" = type { %"class.std::locale::facet.base", [4 x i8] }
%"class.std::num_get" = type { %"class.std::locale::facet.base", [4 x i8] }

@_ZStL8__ioinit = internal global %"class.std::ios_base::Init" zeroinitializer, align 1
@__dso_handle = external hidden global i8
@_ZSt3cin = external dso_local global %"class.std::basic_istream", align 8
@_ZSt4cout = external dso_local global %"class.std::basic_ostream", align 8
@llvm.global_ctors = appending global [1 x { i32, void ()*, i8* }] [{ i32, void ()*, i8* } { i32 65535, void ()* @_GLOBAL__sub_I_338.cpp, i8* null }]

; Function Attrs: noinline uwtable
define internal void @__cxx_global_var_init() #0 section ".text.startup" {
  call void @_ZNSt8ios_base4InitC1Ev(%"class.std::ios_base::Init"* @_ZStL8__ioinit)
  %1 = call i32 @__cxa_atexit(void (i8*)* bitcast (void (%"class.std::ios_base::Init"*)* @_ZNSt8ios_base4InitD1Ev to void (i8*)*), i8* getelementptr inbounds (%"class.std::ios_base::Init", %"class.std::ios_base::Init"* @_ZStL8__ioinit, i32 0, i32 0), i8* @__dso_handle) #3
  ret void
}

declare dso_local void @_ZNSt8ios_base4InitC1Ev(%"class.std::ios_base::Init"*) unnamed_addr #1

; Function Attrs: nounwind
declare dso_local void @_ZNSt8ios_base4InitD1Ev(%"class.std::ios_base::Init"*) unnamed_addr #2

; Function Attrs: nounwind
declare dso_local i32 @__cxa_atexit(void (i8*)*, i8*, i8*) #3

; Function Attrs: noinline norecurse uwtable
define dso_local i32 @main() #4 {
  %1 = alloca i32, align 4
  %2 = alloca [5 x i32], align 16
  %3 = alloca i32, align 4
  %4 = alloca i32, align 4
  %5 = alloca i32, align 4
  store i32 0, i32* %1, align 4
  %6 = bitcast [5 x i32]* %2 to i8*
  call void @llvm.memset.p0i8.i64(i8* align 16 %6, i8 0, i64 20, i1 false)
  %7 = call dereferenceable(280) %"class.std::basic_istream"* @_ZNSirsERi(%"class.std::basic_istream"* @_ZSt3cin, i32* dereferenceable(4) %3)
  %8 = load i32, i32* %3, align 4
  %9 = sdiv i32 %8, 10000
  %10 = getelementptr inbounds [5 x i32], [5 x i32]* %2, i64 0, i64 0
  store i32 %9, i32* %10, align 16
  %11 = load i32, i32* %3, align 4
  %12 = getelementptr inbounds [5 x i32], [5 x i32]* %2, i64 0, i64 0
  %13 = load i32, i32* %12, align 16
  %14 = mul nsw i32 %13, 10000
  %15 = sub nsw i32 %11, %14
  %16 = sdiv i32 %15, 1000
  %17 = getelementptr inbounds [5 x i32], [5 x i32]* %2, i64 0, i64 1
  store i32 %16, i32* %17, align 4
  %18 = load i32, i32* %3, align 4
  %19 = getelementptr inbounds [5 x i32], [5 x i32]* %2, i64 0, i64 0
  %20 = load i32, i32* %19, align 16
  %21 = mul nsw i32 10000, %20
  %22 = sub nsw i32 %18, %21
  %23 = getelementptr inbounds [5 x i32], [5 x i32]* %2, i64 0, i64 1
  %24 = load i32, i32* %23, align 4
  %25 = mul nsw i32 1000, %24
  %26 = sub nsw i32 %22, %25
  %27 = sdiv i32 %26, 100
  %28 = getelementptr inbounds [5 x i32], [5 x i32]* %2, i64 0, i64 2
  store i32 %27, i32* %28, align 8
  %29 = load i32, i32* %3, align 4
  %30 = getelementptr inbounds [5 x i32], [5 x i32]* %2, i64 0, i64 0
  %31 = load i32, i32* %30, align 16
  %32 = mul nsw i32 10000, %31
  %33 = sub nsw i32 %29, %32
  %34 = getelementptr inbounds [5 x i32], [5 x i32]* %2, i64 0, i64 1
  %35 = load i32, i32* %34, align 4
  %36 = mul nsw i32 1000, %35
  %37 = sub nsw i32 %33, %36
  %38 = getelementptr inbounds [5 x i32], [5 x i32]* %2, i64 0, i64 2
  %39 = load i32, i32* %38, align 8
  %40 = mul nsw i32 100, %39
  %41 = sub nsw i32 %37, %40
  %42 = sdiv i32 %41, 10
  %43 = getelementptr inbounds [5 x i32], [5 x i32]* %2, i64 0, i64 3
  store i32 %42, i32* %43, align 4
  %44 = load i32, i32* %3, align 4
  %45 = getelementptr inbounds [5 x i32], [5 x i32]* %2, i64 0, i64 0
  %46 = load i32, i32* %45, align 16
  %47 = mul nsw i32 %46, 10000
  %48 = sub nsw i32 %44, %47
  %49 = getelementptr inbounds [5 x i32], [5 x i32]* %2, i64 0, i64 1
  %50 = load i32, i32* %49, align 4
  %51 = mul nsw i32 %50, 1000
  %52 = sub nsw i32 %48, %51
  %53 = getelementptr inbounds [5 x i32], [5 x i32]* %2, i64 0, i64 2
  %54 = load i32, i32* %53, align 8
  %55 = mul nsw i32 %54, 100
  %56 = sub nsw i32 %52, %55
  %57 = getelementptr inbounds [5 x i32], [5 x i32]* %2, i64 0, i64 3
  %58 = load i32, i32* %57, align 4
  %59 = mul nsw i32 %58, 10
  %60 = sub nsw i32 %56, %59
  %61 = getelementptr inbounds [5 x i32], [5 x i32]* %2, i64 0, i64 4
  store i32 %60, i32* %61, align 16
  %62 = load i32, i32* %3, align 4
  %63 = icmp eq i32 %62, 0
  br i1 %63, label %64, label %66

64:                                               ; preds = %0
  %65 = call dereferenceable(272) %"class.std::basic_ostream"* @_ZNSolsEi(%"class.std::basic_ostream"* @_ZSt4cout, i32 0)
  br label %96

66:                                               ; preds = %0
  store i32 0, i32* %4, align 4
  br label %67

67:                                               ; preds = %92, %66
  %68 = load i32, i32* %4, align 4
  %69 = icmp slt i32 %68, 5
  br i1 %69, label %70, label %95

70:                                               ; preds = %67
  %71 = load i32, i32* %4, align 4
  %72 = sext i32 %71 to i64
  %73 = getelementptr inbounds [5 x i32], [5 x i32]* %2, i64 0, i64 %72
  %74 = load i32, i32* %73, align 4
  %75 = icmp ne i32 %74, 0
  br i1 %75, label %76, label %91

76:                                               ; preds = %70
  store i32 4, i32* %5, align 4
  br label %77

77:                                               ; preds = %87, %76
  %78 = load i32, i32* %5, align 4
  %79 = load i32, i32* %4, align 4
  %80 = icmp sge i32 %78, %79
  br i1 %80, label %81, label %90

81:                                               ; preds = %77
  %82 = load i32, i32* %5, align 4
  %83 = sext i32 %82 to i64
  %84 = getelementptr inbounds [5 x i32], [5 x i32]* %2, i64 0, i64 %83
  %85 = load i32, i32* %84, align 4
  %86 = call dereferenceable(272) %"class.std::basic_ostream"* @_ZNSolsEi(%"class.std::basic_ostream"* @_ZSt4cout, i32 %85)
  br label %87

87:                                               ; preds = %81
  %88 = load i32, i32* %5, align 4
  %89 = add nsw i32 %88, -1
  store i32 %89, i32* %5, align 4
  br label %77

90:                                               ; preds = %77
  br label %95

91:                                               ; preds = %70
  br label %92

92:                                               ; preds = %91
  %93 = load i32, i32* %4, align 4
  %94 = add nsw i32 %93, 1
  store i32 %94, i32* %4, align 4
  br label %67

95:                                               ; preds = %90, %67
  br label %96

96:                                               ; preds = %95, %64
  %97 = call dereferenceable(272) %"class.std::basic_ostream"* @_ZNSolsEPFRSoS_E(%"class.std::basic_ostream"* @_ZSt4cout, %"class.std::basic_ostream"* (%"class.std::basic_ostream"*)* @_ZSt4endlIcSt11char_traitsIcEERSt13basic_ostreamIT_T0_ES6_)
  ret i32 0
}

; Function Attrs: argmemonly nounwind willreturn
declare void @llvm.memset.p0i8.i64(i8* nocapture writeonly, i8, i64, i1 immarg) #5

declare dso_local dereferenceable(280) %"class.std::basic_istream"* @_ZNSirsERi(%"class.std::basic_istream"*, i32* dereferenceable(4)) #1

declare dso_local dereferenceable(272) %"class.std::basic_ostream"* @_ZNSolsEi(%"class.std::basic_ostream"*, i32) #1

declare dso_local dereferenceable(272) %"class.std::basic_ostream"* @_ZNSolsEPFRSoS_E(%"class.std::basic_ostream"*, %"class.std::basic_ostream"* (%"class.std::basic_ostream"*)*) #1

declare dso_local dereferenceable(272) %"class.std::basic_ostream"* @_ZSt4endlIcSt11char_traitsIcEERSt13basic_ostreamIT_T0_ES6_(%"class.std::basic_ostream"* dereferenceable(272)) #1

; Function Attrs: noinline uwtable
define internal void @_GLOBAL__sub_I_338.cpp() #0 section ".text.startup" {
  call void @__cxx_global_var_init()
  ret void
}


!llvm.module.flags = !{!0}
!llvm.ident = !{!1}

!0 = !{i32 1, !"wchar_size", i32 4}
!1 = !{!"clang version 10.0.0-4ubuntu1 "}
